target datalayout = "e-m:e-p270:32:32-p271:32:32-p272:64:64-i64:64-i128:128-f80:128-n8:16:32:64-S128"
target triple = "x86_64-pc-linux-gnu"

; Function Attrs: nounwind uwtable
define internal i32 @pax_attribute_SCHILY_xattr(ptr noundef %0, ptr noundef %1, i64 noundef %2, ptr noundef %3, i64 noundef %4) #0 {
  %6 = alloca i32, align 4
  %7 = alloca ptr, align 8
  %8 = alloca ptr, align 8
  %9 = alloca i64, align 8
  %10 = alloca ptr, align 8
  %11 = alloca i64, align 8
  %12 = alloca ptr, align 8
  store ptr %0, ptr %7, align 8, !tbaa !45
  store ptr %1, ptr %8, align 8, !tbaa !15
  store i64 %2, ptr %9, align 8, !tbaa !46
  store ptr %3, ptr %10, align 8, !tbaa !15
  store i64 %4, ptr %11, align 8, !tbaa !46
  %13 = load i64, ptr %9, align 8, !tbaa !46
  %14 = icmp ult i64 %13, 1
  br i1 %14, label %18, label %15

15:                                               ; preds = %5
  %16 = load i64, ptr %9, align 8, !tbaa !46
  %17 = icmp ugt i64 %16, 128
  br i1 %17, label %18, label %19

18:                                               ; preds = %15, %5
  store i32 1, ptr %6, align 4
  br label %38

19:                                               ; preds = %15
  call void @llvm.lifetime.start.p0(i64 8, ptr %12) #10
  %20 = load i64, ptr %9, align 8, !tbaa !46
  %21 = add i64 %20, 1
  %22 = call noalias ptr @malloc(i64 noundef %21) #14
  store ptr %22, ptr %12, align 8, !tbaa !15
  %23 = load ptr, ptr %12, align 8, !tbaa !15
  %24 = icmp ne ptr %23, null
  br i1 %24, label %25, label %37

25:                                               ; preds = %19
  %26 = load ptr, ptr %12, align 8, !tbaa !15
  %27 = load ptr, ptr %8, align 8, !tbaa !15
  %28 = load i64, ptr %9, align 8, !tbaa !46
  call void @llvm.memcpy.p0.p0.i64(ptr align 1 %26, ptr align 1 %27, i64 %28, i1 false)
  %29 = load ptr, ptr %12, align 8, !tbaa !15
  %30 = load i64, ptr %9, align 8, !tbaa !46
  %31 = getelementptr inbounds nuw i8, ptr %29, i64 %30
  store i8 0, ptr %31, align 1, !tbaa !17
  %32 = load ptr, ptr %7, align 8, !tbaa !45
  %33 = load ptr, ptr %12, align 8, !tbaa !15
  %34 = load ptr, ptr %10, align 8, !tbaa !15
  %35 = load i64, ptr %11, align 8, !tbaa !46
  call void @archive_entry_xattr_add_entry(ptr noundef %32, ptr noundef %33, ptr noundef %34, i64 noundef %35)
  %36 = load ptr, ptr %12, align 8, !tbaa !15
  call void @free(ptr noundef %36) #10
  br label %37

37:                                               ; preds = %25, %19
  store i32 0, ptr %6, align 4
  call void @llvm.lifetime.end.p0(i64 8, ptr %12) #10
  br label %38

38:                                               ; preds = %37, %18
  %39 = load i32, ptr %6, align 4
  ret i32 %39
}