; Function Attrs: nounwind uwtable
define internal fastcc range(i32 0, 2) i32 @pax_attribute_SCHILY_xattr(ptr noundef %0, ptr noundef readonly captures(none) %1, i64 noundef range(i64 1, -13) %2, ptr noundef nonnull %3, i64 noundef range(i64 0, 16777216) %4) unnamed_addr #0 {
  %6 = icmp ugt i64 %2, 128
  br i1 %6, label %12, label %7

7:                                                ; preds = %5
  %8 = add nuw nsw i64 %2, 1
  %9 = tail call noalias ptr @malloc(i64 noundef %8) #17
  %.not = icmp eq ptr %9, null
  br i1 %.not, label %12, label %10

10:                                               ; preds = %7
  tail call void @llvm.memcpy.p0.p0.i64(ptr noundef nonnull align 1 dereferenceable(1) %9, ptr noundef nonnull align 1 dereferenceable(1) %1, i64 %2, i1 false)
  %11 = getelementptr inbounds nuw i8, ptr %9, i64 %2
  store i8 0, ptr %11, align 1, !tbaa !4
  tail call void @archive_entry_xattr_add_entry(ptr noundef %0, ptr noundef nonnull %9, ptr noundef nonnull %3, i64 noundef %4) #13
  tail call void @free(ptr noundef nonnull %9) #13
  br label %12

12:                                               ; preds = %7, %10, %5
  %.0 = phi i32 [ 1, %5 ], [ 0, %10 ], [ 0, %7 ]
  ret i32 %.0
}